
C:\Users\Ofek\Downloads\RV32i-Verilog-master\RV32i-Verilog-master\data\test:     file format elf32-littleriscv


Disassembly of section .text:

00000000 <register_fini>:
   0:	00000793          	li	a5,0
   4:	00078663          	beqz	a5,10 <register_fini+0x10>
   8:	49c00513          	li	a0,1180
   c:	4ec0006f          	j	4f8 <atexit>
  10:	00008067          	ret

00000014 <_start>:
  14:	00002197          	auipc	gp,0x2
  18:	dec18193          	addi	gp,gp,-532 # 1e00 <__global_pointer$>
  1c:	c3418513          	addi	a0,gp,-972 # 1a34 <completed.1>
  20:	c5018613          	addi	a2,gp,-944 # 1a50 <__BSS_END__>
  24:	40a60633          	sub	a2,a2,a0
  28:	00000593          	li	a1,0
  2c:	274000ef          	jal	ra,2a0 <memset>
  30:	00000517          	auipc	a0,0x0
  34:	4c850513          	addi	a0,a0,1224 # 4f8 <atexit>
  38:	00050863          	beqz	a0,48 <_start+0x34>
  3c:	00000517          	auipc	a0,0x0
  40:	46050513          	addi	a0,a0,1120 # 49c <__libc_fini_array>
  44:	4b4000ef          	jal	ra,4f8 <atexit>
  48:	1bc000ef          	jal	ra,204 <__libc_init_array>
  4c:	00012503          	lw	a0,0(sp)
  50:	00410593          	addi	a1,sp,4
  54:	00000613          	li	a2,0
  58:	074000ef          	jal	ra,cc <main>
  5c:	1780006f          	j	1d4 <exit>

00000060 <__do_global_dtors_aux>:
  60:	c341c703          	lbu	a4,-972(gp) # 1a34 <completed.1>
  64:	04071263          	bnez	a4,a8 <__do_global_dtors_aux+0x48>
  68:	ff010113          	addi	sp,sp,-16
  6c:	00812423          	sw	s0,8(sp)
  70:	00078413          	mv	s0,a5
  74:	00112623          	sw	ra,12(sp)
  78:	00000793          	li	a5,0
  7c:	00078a63          	beqz	a5,90 <__do_global_dtors_aux+0x30>
  80:	00001537          	lui	a0,0x1
  84:	5f050513          	addi	a0,a0,1520 # 15f0 <__FRAME_END__>
  88:	00000097          	auipc	ra,0x0
  8c:	000000e7          	jalr	zero # 0 <register_fini>
  90:	00100793          	li	a5,1
  94:	00c12083          	lw	ra,12(sp)
  98:	c2f18a23          	sb	a5,-972(gp) # 1a34 <completed.1>
  9c:	00812403          	lw	s0,8(sp)
  a0:	01010113          	addi	sp,sp,16
  a4:	00008067          	ret
  a8:	00008067          	ret

000000ac <frame_dummy>:
  ac:	00000793          	li	a5,0
  b0:	00078c63          	beqz	a5,c8 <frame_dummy+0x1c>
  b4:	00001537          	lui	a0,0x1
  b8:	c3818593          	addi	a1,gp,-968 # 1a38 <object.0>
  bc:	5f050513          	addi	a0,a0,1520 # 15f0 <__FRAME_END__>
  c0:	00000317          	auipc	t1,0x0
  c4:	00000067          	jr	zero # 0 <register_fini>
  c8:	00008067          	ret

000000cc <main>:
  cc:	fc010113          	addi	sp,sp,-64
  d0:	02812e23          	sw	s0,60(sp)
  d4:	04010413          	addi	s0,sp,64
  d8:	01400793          	li	a5,20
  dc:	fef42623          	sw	a5,-20(s0)
  e0:	02000793          	li	a5,32
  e4:	fef42423          	sw	a5,-24(s0)
  e8:	02400793          	li	a5,36
  ec:	fef42223          	sw	a5,-28(s0)
  f0:	02800793          	li	a5,40
  f4:	fef42023          	sw	a5,-32(s0)
  f8:	02c00793          	li	a5,44
  fc:	fcf42e23          	sw	a5,-36(s0)
 100:	03000793          	li	a5,48
 104:	fcf42c23          	sw	a5,-40(s0)
 108:	03400793          	li	a5,52
 10c:	fcf42a23          	sw	a5,-44(s0)
 110:	03800793          	li	a5,56
 114:	fcf42823          	sw	a5,-48(s0)
 118:	03c00793          	li	a5,60
 11c:	fcf42623          	sw	a5,-52(s0)
 120:	04000793          	li	a5,64
 124:	fcf42423          	sw	a5,-56(s0)
 128:	04400793          	li	a5,68
 12c:	fcf42223          	sw	a5,-60(s0)
 130:	fe042783          	lw	a5,-32(s0)
 134:	02010737          	lui	a4,0x2010
 138:	20170713          	addi	a4,a4,513 # 2010201 <__global_pointer$+0x200e401>
 13c:	00e7a023          	sw	a4,0(a5)
 140:	fdc42783          	lw	a5,-36(s0)
 144:	05040737          	lui	a4,0x5040
 148:	2ff70713          	addi	a4,a4,767 # 50402ff <__global_pointer$+0x503e4ff>
 14c:	00e7a023          	sw	a4,0(a5)
 150:	fd442783          	lw	a5,-44(s0)
 154:	02030737          	lui	a4,0x2030
 158:	40570713          	addi	a4,a4,1029 # 2030405 <__global_pointer$+0x202e605>
 15c:	00e7a023          	sw	a4,0(a5)
 160:	fd042783          	lw	a5,-48(s0)
 164:	07040737          	lui	a4,0x7040
 168:	60270713          	addi	a4,a4,1538 # 7040602 <__global_pointer$+0x703e802>
 16c:	00e7a023          	sw	a4,0(a5)
 170:	fcc42783          	lw	a5,-52(s0)
 174:	00010737          	lui	a4,0x10
 178:	20170713          	addi	a4,a4,513 # 10201 <__global_pointer$+0xe401>
 17c:	00e7a023          	sw	a4,0(a5)
 180:	fc842783          	lw	a5,-56(s0)
 184:	00020737          	lui	a4,0x20
 188:	40270713          	addi	a4,a4,1026 # 20402 <__global_pointer$+0x1e602>
 18c:	00e7a023          	sw	a4,0(a5)
 190:	fc442783          	lw	a5,-60(s0)
 194:	00010737          	lui	a4,0x10
 198:	20170713          	addi	a4,a4,513 # 10201 <__global_pointer$+0xe401>
 19c:	00e7a023          	sw	a4,0(a5)
 1a0:	fe842783          	lw	a5,-24(s0)
 1a4:	00100713          	li	a4,1
 1a8:	00e7a023          	sw	a4,0(a5)
 1ac:	01400793          	li	a5,20
 1b0:	fd842703          	lw	a4,-40(s0)
 1b4:	00072703          	lw	a4,0(a4)
 1b8:	00e7a023          	sw	a4,0(a5)
 1bc:	fd842783          	lw	a5,-40(s0)
 1c0:	0007a783          	lw	a5,0(a5)
 1c4:	0187d713          	srli	a4,a5,0x18
 1c8:	01000793          	li	a5,16
 1cc:	00e7a023          	sw	a4,0(a5)
 1d0:	0000006f          	j	1d0 <main+0x104>

000001d4 <exit>:
 1d4:	ff010113          	addi	sp,sp,-16
 1d8:	00000593          	li	a1,0
 1dc:	00812423          	sw	s0,8(sp)
 1e0:	00112623          	sw	ra,12(sp)
 1e4:	00050413          	mv	s0,a0
 1e8:	194000ef          	jal	ra,37c <__call_exitprocs>
 1ec:	c281a503          	lw	a0,-984(gp) # 1a28 <_global_impure_ptr>
 1f0:	03c52783          	lw	a5,60(a0)
 1f4:	00078463          	beqz	a5,1fc <exit+0x28>
 1f8:	000780e7          	jalr	a5
 1fc:	00040513          	mv	a0,s0
 200:	3a4000ef          	jal	ra,5a4 <_exit>

00000204 <__libc_init_array>:
 204:	ff010113          	addi	sp,sp,-16
 208:	00812423          	sw	s0,8(sp)
 20c:	01212023          	sw	s2,0(sp)
 210:	00001437          	lui	s0,0x1
 214:	00001937          	lui	s2,0x1
 218:	5f440793          	addi	a5,s0,1524 # 15f4 <__init_array_start>
 21c:	5f490913          	addi	s2,s2,1524 # 15f4 <__init_array_start>
 220:	40f90933          	sub	s2,s2,a5
 224:	00112623          	sw	ra,12(sp)
 228:	00912223          	sw	s1,4(sp)
 22c:	40295913          	srai	s2,s2,0x2
 230:	02090063          	beqz	s2,250 <__libc_init_array+0x4c>
 234:	5f440413          	addi	s0,s0,1524
 238:	00000493          	li	s1,0
 23c:	00042783          	lw	a5,0(s0)
 240:	00148493          	addi	s1,s1,1
 244:	00440413          	addi	s0,s0,4
 248:	000780e7          	jalr	a5
 24c:	fe9918e3          	bne	s2,s1,23c <__libc_init_array+0x38>
 250:	00001437          	lui	s0,0x1
 254:	00001937          	lui	s2,0x1
 258:	5f440793          	addi	a5,s0,1524 # 15f4 <__init_array_start>
 25c:	5fc90913          	addi	s2,s2,1532 # 15fc <__do_global_dtors_aux_fini_array_entry>
 260:	40f90933          	sub	s2,s2,a5
 264:	40295913          	srai	s2,s2,0x2
 268:	02090063          	beqz	s2,288 <__libc_init_array+0x84>
 26c:	5f440413          	addi	s0,s0,1524
 270:	00000493          	li	s1,0
 274:	00042783          	lw	a5,0(s0)
 278:	00148493          	addi	s1,s1,1
 27c:	00440413          	addi	s0,s0,4
 280:	000780e7          	jalr	a5
 284:	fe9918e3          	bne	s2,s1,274 <__libc_init_array+0x70>
 288:	00c12083          	lw	ra,12(sp)
 28c:	00812403          	lw	s0,8(sp)
 290:	00412483          	lw	s1,4(sp)
 294:	00012903          	lw	s2,0(sp)
 298:	01010113          	addi	sp,sp,16
 29c:	00008067          	ret

000002a0 <memset>:
 2a0:	00f00313          	li	t1,15
 2a4:	00050713          	mv	a4,a0
 2a8:	02c37e63          	bgeu	t1,a2,2e4 <memset+0x44>
 2ac:	00f77793          	andi	a5,a4,15
 2b0:	0a079063          	bnez	a5,350 <memset+0xb0>
 2b4:	08059263          	bnez	a1,338 <memset+0x98>
 2b8:	ff067693          	andi	a3,a2,-16
 2bc:	00f67613          	andi	a2,a2,15
 2c0:	00e686b3          	add	a3,a3,a4
 2c4:	00b72023          	sw	a1,0(a4)
 2c8:	00b72223          	sw	a1,4(a4)
 2cc:	00b72423          	sw	a1,8(a4)
 2d0:	00b72623          	sw	a1,12(a4)
 2d4:	01070713          	addi	a4,a4,16
 2d8:	fed766e3          	bltu	a4,a3,2c4 <memset+0x24>
 2dc:	00061463          	bnez	a2,2e4 <memset+0x44>
 2e0:	00008067          	ret
 2e4:	40c306b3          	sub	a3,t1,a2
 2e8:	00269693          	slli	a3,a3,0x2
 2ec:	00000297          	auipc	t0,0x0
 2f0:	005686b3          	add	a3,a3,t0
 2f4:	00c68067          	jr	12(a3)
 2f8:	00b70723          	sb	a1,14(a4)
 2fc:	00b706a3          	sb	a1,13(a4)
 300:	00b70623          	sb	a1,12(a4)
 304:	00b705a3          	sb	a1,11(a4)
 308:	00b70523          	sb	a1,10(a4)
 30c:	00b704a3          	sb	a1,9(a4)
 310:	00b70423          	sb	a1,8(a4)
 314:	00b703a3          	sb	a1,7(a4)
 318:	00b70323          	sb	a1,6(a4)
 31c:	00b702a3          	sb	a1,5(a4)
 320:	00b70223          	sb	a1,4(a4)
 324:	00b701a3          	sb	a1,3(a4)
 328:	00b70123          	sb	a1,2(a4)
 32c:	00b700a3          	sb	a1,1(a4)
 330:	00b70023          	sb	a1,0(a4)
 334:	00008067          	ret
 338:	0ff5f593          	andi	a1,a1,255
 33c:	00859693          	slli	a3,a1,0x8
 340:	00d5e5b3          	or	a1,a1,a3
 344:	01059693          	slli	a3,a1,0x10
 348:	00d5e5b3          	or	a1,a1,a3
 34c:	f6dff06f          	j	2b8 <memset+0x18>
 350:	00279693          	slli	a3,a5,0x2
 354:	00000297          	auipc	t0,0x0
 358:	005686b3          	add	a3,a3,t0
 35c:	00008293          	mv	t0,ra
 360:	fa0680e7          	jalr	-96(a3)
 364:	00028093          	mv	ra,t0
 368:	ff078793          	addi	a5,a5,-16
 36c:	40f70733          	sub	a4,a4,a5
 370:	00f60633          	add	a2,a2,a5
 374:	f6c378e3          	bgeu	t1,a2,2e4 <memset+0x44>
 378:	f3dff06f          	j	2b4 <memset+0x14>

0000037c <__call_exitprocs>:
 37c:	fd010113          	addi	sp,sp,-48
 380:	01412c23          	sw	s4,24(sp)
 384:	c281aa03          	lw	s4,-984(gp) # 1a28 <_global_impure_ptr>
 388:	03212023          	sw	s2,32(sp)
 38c:	02112623          	sw	ra,44(sp)
 390:	148a2903          	lw	s2,328(s4)
 394:	02812423          	sw	s0,40(sp)
 398:	02912223          	sw	s1,36(sp)
 39c:	01312e23          	sw	s3,28(sp)
 3a0:	01512a23          	sw	s5,20(sp)
 3a4:	01612823          	sw	s6,16(sp)
 3a8:	01712623          	sw	s7,12(sp)
 3ac:	01812423          	sw	s8,8(sp)
 3b0:	04090063          	beqz	s2,3f0 <__call_exitprocs+0x74>
 3b4:	00050b13          	mv	s6,a0
 3b8:	00058b93          	mv	s7,a1
 3bc:	00100a93          	li	s5,1
 3c0:	fff00993          	li	s3,-1
 3c4:	00492483          	lw	s1,4(s2)
 3c8:	fff48413          	addi	s0,s1,-1
 3cc:	02044263          	bltz	s0,3f0 <__call_exitprocs+0x74>
 3d0:	00249493          	slli	s1,s1,0x2
 3d4:	009904b3          	add	s1,s2,s1
 3d8:	040b8463          	beqz	s7,420 <__call_exitprocs+0xa4>
 3dc:	1044a783          	lw	a5,260(s1)
 3e0:	05778063          	beq	a5,s7,420 <__call_exitprocs+0xa4>
 3e4:	fff40413          	addi	s0,s0,-1
 3e8:	ffc48493          	addi	s1,s1,-4
 3ec:	ff3416e3          	bne	s0,s3,3d8 <__call_exitprocs+0x5c>
 3f0:	02c12083          	lw	ra,44(sp)
 3f4:	02812403          	lw	s0,40(sp)
 3f8:	02412483          	lw	s1,36(sp)
 3fc:	02012903          	lw	s2,32(sp)
 400:	01c12983          	lw	s3,28(sp)
 404:	01812a03          	lw	s4,24(sp)
 408:	01412a83          	lw	s5,20(sp)
 40c:	01012b03          	lw	s6,16(sp)
 410:	00c12b83          	lw	s7,12(sp)
 414:	00812c03          	lw	s8,8(sp)
 418:	03010113          	addi	sp,sp,48
 41c:	00008067          	ret
 420:	00492783          	lw	a5,4(s2)
 424:	0044a683          	lw	a3,4(s1)
 428:	fff78793          	addi	a5,a5,-1
 42c:	04878e63          	beq	a5,s0,488 <__call_exitprocs+0x10c>
 430:	0004a223          	sw	zero,4(s1)
 434:	fa0688e3          	beqz	a3,3e4 <__call_exitprocs+0x68>
 438:	18892783          	lw	a5,392(s2)
 43c:	008a9733          	sll	a4,s5,s0
 440:	00492c03          	lw	s8,4(s2)
 444:	00f777b3          	and	a5,a4,a5
 448:	02079263          	bnez	a5,46c <__call_exitprocs+0xf0>
 44c:	000680e7          	jalr	a3
 450:	00492703          	lw	a4,4(s2)
 454:	148a2783          	lw	a5,328(s4)
 458:	01871463          	bne	a4,s8,460 <__call_exitprocs+0xe4>
 45c:	f92784e3          	beq	a5,s2,3e4 <__call_exitprocs+0x68>
 460:	f80788e3          	beqz	a5,3f0 <__call_exitprocs+0x74>
 464:	00078913          	mv	s2,a5
 468:	f5dff06f          	j	3c4 <__call_exitprocs+0x48>
 46c:	18c92783          	lw	a5,396(s2)
 470:	0844a583          	lw	a1,132(s1)
 474:	00f77733          	and	a4,a4,a5
 478:	00071c63          	bnez	a4,490 <__call_exitprocs+0x114>
 47c:	000b0513          	mv	a0,s6
 480:	000680e7          	jalr	a3
 484:	fcdff06f          	j	450 <__call_exitprocs+0xd4>
 488:	00892223          	sw	s0,4(s2)
 48c:	fa9ff06f          	j	434 <__call_exitprocs+0xb8>
 490:	00058513          	mv	a0,a1
 494:	000680e7          	jalr	a3
 498:	fb9ff06f          	j	450 <__call_exitprocs+0xd4>

0000049c <__libc_fini_array>:
 49c:	ff010113          	addi	sp,sp,-16
 4a0:	00812423          	sw	s0,8(sp)
 4a4:	000017b7          	lui	a5,0x1
 4a8:	00001437          	lui	s0,0x1
 4ac:	5fc40413          	addi	s0,s0,1532 # 15fc <__do_global_dtors_aux_fini_array_entry>
 4b0:	60078793          	addi	a5,a5,1536 # 1600 <impure_data>
 4b4:	408787b3          	sub	a5,a5,s0
 4b8:	00912223          	sw	s1,4(sp)
 4bc:	00112623          	sw	ra,12(sp)
 4c0:	4027d493          	srai	s1,a5,0x2
 4c4:	02048063          	beqz	s1,4e4 <__libc_fini_array+0x48>
 4c8:	ffc78793          	addi	a5,a5,-4
 4cc:	00878433          	add	s0,a5,s0
 4d0:	00042783          	lw	a5,0(s0)
 4d4:	fff48493          	addi	s1,s1,-1
 4d8:	ffc40413          	addi	s0,s0,-4
 4dc:	000780e7          	jalr	a5
 4e0:	fe0498e3          	bnez	s1,4d0 <__libc_fini_array+0x34>
 4e4:	00c12083          	lw	ra,12(sp)
 4e8:	00812403          	lw	s0,8(sp)
 4ec:	00412483          	lw	s1,4(sp)
 4f0:	01010113          	addi	sp,sp,16
 4f4:	00008067          	ret

000004f8 <atexit>:
 4f8:	00050593          	mv	a1,a0
 4fc:	00000693          	li	a3,0
 500:	00000613          	li	a2,0
 504:	00000513          	li	a0,0
 508:	0040006f          	j	50c <__register_exitproc>

0000050c <__register_exitproc>:
 50c:	c281a703          	lw	a4,-984(gp) # 1a28 <_global_impure_ptr>
 510:	14872783          	lw	a5,328(a4)
 514:	04078c63          	beqz	a5,56c <__register_exitproc+0x60>
 518:	0047a703          	lw	a4,4(a5)
 51c:	01f00813          	li	a6,31
 520:	06e84e63          	blt	a6,a4,59c <__register_exitproc+0x90>
 524:	00271813          	slli	a6,a4,0x2
 528:	02050663          	beqz	a0,554 <__register_exitproc+0x48>
 52c:	01078333          	add	t1,a5,a6
 530:	08c32423          	sw	a2,136(t1) # 148 <main+0x7c>
 534:	1887a883          	lw	a7,392(a5)
 538:	00100613          	li	a2,1
 53c:	00e61633          	sll	a2,a2,a4
 540:	00c8e8b3          	or	a7,a7,a2
 544:	1917a423          	sw	a7,392(a5)
 548:	10d32423          	sw	a3,264(t1)
 54c:	00200693          	li	a3,2
 550:	02d50463          	beq	a0,a3,578 <__register_exitproc+0x6c>
 554:	00170713          	addi	a4,a4,1
 558:	00e7a223          	sw	a4,4(a5)
 55c:	010787b3          	add	a5,a5,a6
 560:	00b7a423          	sw	a1,8(a5)
 564:	00000513          	li	a0,0
 568:	00008067          	ret
 56c:	14c70793          	addi	a5,a4,332
 570:	14f72423          	sw	a5,328(a4)
 574:	fa5ff06f          	j	518 <__register_exitproc+0xc>
 578:	18c7a683          	lw	a3,396(a5)
 57c:	00170713          	addi	a4,a4,1
 580:	00e7a223          	sw	a4,4(a5)
 584:	00c6e633          	or	a2,a3,a2
 588:	18c7a623          	sw	a2,396(a5)
 58c:	010787b3          	add	a5,a5,a6
 590:	00b7a423          	sw	a1,8(a5)
 594:	00000513          	li	a0,0
 598:	00008067          	ret
 59c:	fff00513          	li	a0,-1
 5a0:	00008067          	ret

000005a4 <_exit>:
 5a4:	00000593          	li	a1,0
 5a8:	00000613          	li	a2,0
 5ac:	00000693          	li	a3,0
 5b0:	00000713          	li	a4,0
 5b4:	00000793          	li	a5,0
 5b8:	05d00893          	li	a7,93
 5bc:	00000073          	ecall
 5c0:	00054463          	bltz	a0,5c8 <_exit+0x24>
 5c4:	0000006f          	j	5c4 <_exit+0x20>
 5c8:	ff010113          	addi	sp,sp,-16
 5cc:	00812423          	sw	s0,8(sp)
 5d0:	00050413          	mv	s0,a0
 5d4:	00112623          	sw	ra,12(sp)
 5d8:	40800433          	neg	s0,s0
 5dc:	00c000ef          	jal	ra,5e8 <__errno>
 5e0:	00852023          	sw	s0,0(a0)
 5e4:	0000006f          	j	5e4 <_exit+0x40>

000005e8 <__errno>:
 5e8:	c301a503          	lw	a0,-976(gp) # 1a30 <_impure_ptr>
 5ec:	00008067          	ret
